; Function Attrs: nounwind sspstrong uwtable
define internal void @sdhci_sysbus_init(ptr noundef %obj) #0 {
entry:
  %call.i = tail call ptr @object_dynamic_cast_assert(ptr noundef %obj, ptr noundef nonnull @.str.151, ptr noundef nonnull @.str.153, i32 noundef 124, ptr noundef nonnull @__func__.SYSBUS_SDHCI) #12
  %sdbus.i = getelementptr inbounds nuw i8, ptr %call.i, i64 2608
  %call.i.i = tail call ptr @object_dynamic_cast_assert(ptr noundef %call.i, ptr noundef nonnull @.str.35, ptr noundef nonnull @.str.36, i32 noundef 77, ptr noundef nonnull @__func__.DEVICE) #12
  tail call void @qbus_init(ptr noundef nonnull %sdbus.i, i64 noundef 120, ptr noundef nonnull @.str, ptr noundef %call.i.i, ptr noundef nonnull @.str.1) #12
  %call.i.i.i.i = tail call noalias dereferenceable_or_null(48) ptr @g_malloc0_n(i64 noundef 1, i64 noundef 48) #13
  tail call void @timer_init_full(ptr noundef %call.i.i.i.i, ptr noundef null, i32 noundef 1, i32 noundef 1, i32 noundef 0, ptr noundef nonnull @sdhci_raise_insertion_irq, ptr noundef %call.i) #12
  %insert_timer.i = getelementptr inbounds nuw i8, ptr %call.i, i64 3120
  store ptr %call.i.i.i.i, ptr %insert_timer.i, align 16
  %call.i.i.i7.i = tail call noalias dereferenceable_or_null(48) ptr @g_malloc0_n(i64 noundef 1, i64 noundef 48) #13
  tail call void @timer_init_full(ptr noundef %call.i.i.i7.i, ptr noundef null, i32 noundef 1, i32 noundef 1, i32 noundef 0, ptr noundef nonnull @sdhci_data_transfer, ptr noundef %call.i) #12
  %transfer_timer.i = getelementptr inbounds nuw i8, ptr %call.i, i64 3128
  store ptr %call.i.i.i7.i, ptr %transfer_timer.i, align 8
  %io_ops.i = getelementptr inbounds nuw i8, ptr %call.i, i64 3112
  store ptr @sdhci_mmio_le_ops, ptr %io_ops.i, align 8
  ret void
}